(lp0
(lp1
S'CC1.csv'
p2
aF220.0
aF280.0
aF400.0
aF500.0
aF0.01
aS'Cementite_yes'
p3
aS'\n'
p4
aa(lp5
S'CC10.csv'
p6
aF220.0
aF275.0
aF380.0
aF430.0
aF0.01
aS'Cementite_yes'
p7
ag4
aa(lp8
S'CC40.csv'
p9
aF220.0
aF276.0
aF390.0
aF430.0
aF0.01
aS'Cementite_yes'
p10
aS''
p11
aa.